target datalayout = "e-m:e-p270:32:32-p271:32:32-p272:64:64-i64:64-i128:128-f80:128-n8:16:32:64-S128"
target triple = "x86_64-pc-linux-gnu"

%struct.AVRational = type { i32, i32 }
%struct.MXFMetadataSet = type { [16 x i8], i64 }
%struct.MXFIndexTableSegment = type { %struct.MXFMetadataSet, i32, i32, i32, %struct.AVRational, i64, i64, ptr, ptr, ptr, i32, i64 }

@.str.63 = private unnamed_addr constant [22 x i8] c"EditUnitByteCount %d\0A\00", align 1
@.str.64 = private unnamed_addr constant [13 x i8] c"IndexSID %d\0A\00", align 1
@.str.65 = private unnamed_addr constant [12 x i8] c"BodySID %d\0A\00", align 1
@.str.66 = private unnamed_addr constant [23 x i8] c"IndexEntryArray found\0A\00", align 1
@.str.67 = private unnamed_addr constant [21 x i8] c"IndexEditRate %d/%d\0A\00", align 1
@.str.68 = private unnamed_addr constant [24 x i8] c"IndexStartPosition %ld\0A\00", align 1
@.str.69 = private unnamed_addr constant [19 x i8] c"IndexDuration %ld\0A\00", align 1

; Function Attrs: nounwind uwtable
define internal i32 @mxf_read_index_entry_array(ptr noundef %0, ptr noundef %1) #0 {
  %3 = alloca i32, align 4
  %4 = alloca ptr, align 8
  %5 = alloca ptr, align 8
  %6 = alloca i32, align 4
  %7 = alloca i32, align 4
  %8 = alloca i32, align 4
  %9 = alloca i32, align 4
  store ptr %0, ptr %4, align 8, !tbaa !138
  store ptr %1, ptr %5, align 8, !tbaa !248
  call void @llvm.lifetime.start.p0(i64 4, ptr %6) #13
  call void @llvm.lifetime.start.p0(i64 4, ptr %7) #13
  call void @llvm.lifetime.start.p0(i64 4, ptr %8) #13
  %10 = load ptr, ptr %5, align 8, !tbaa !248
  %11 = getelementptr inbounds nuw %struct.MXFIndexTableSegment, ptr %10, i32 0, i32 7
  %12 = load ptr, ptr %11, align 8, !tbaa !337
  %13 = icmp ne ptr %12, null
  br i1 %13, label %14, label %15

14:                                               ; preds = %2
  store i32 -1094995529, ptr %3, align 4
  store i32 1, ptr %9, align 4
  br label %116

15:                                               ; preds = %2
  %16 = load ptr, ptr %4, align 8, !tbaa !138
  %17 = call i32 @avio_rb32(ptr noundef %16)
  store i32 %17, ptr %8, align 4, !tbaa !47
  %18 = load i32, ptr %8, align 4, !tbaa !47
  %19 = icmp ugt i32 %18, 2147483647
  br i1 %19, label %20, label %21

20:                                               ; preds = %15
  store i32 -1094995529, ptr %3, align 4
  store i32 1, ptr %9, align 4
  br label %116

21:                                               ; preds = %15
  %22 = load i32, ptr %8, align 4, !tbaa !47
  %23 = load ptr, ptr %5, align 8, !tbaa !248
  %24 = getelementptr inbounds nuw %struct.MXFIndexTableSegment, ptr %23, i32 0, i32 10
  store i32 %22, ptr %24, align 8, !tbaa !338
  %25 = load ptr, ptr %4, align 8, !tbaa !138
  %26 = call i32 @avio_rb32(ptr noundef %25)
  store i32 %26, ptr %7, align 4, !tbaa !47
  %27 = load ptr, ptr %5, align 8, !tbaa !248
  %28 = getelementptr inbounds nuw %struct.MXFIndexTableSegment, ptr %27, i32 0, i32 10
  %29 = load i32, ptr %28, align 8, !tbaa !338
  %30 = icmp ne i32 %29, 0
  br i1 %30, label %31, label %35

31:                                               ; preds = %21
  %32 = load i32, ptr %7, align 4, !tbaa !47
  %33 = icmp slt i32 %32, 11
  br i1 %33, label %34, label %35

34:                                               ; preds = %31
  store i32 -1094995529, ptr %3, align 4
  store i32 1, ptr %9, align 4
  br label %116

35:                                               ; preds = %31, %21
  %36 = load ptr, ptr %5, align 8, !tbaa !248
  %37 = getelementptr inbounds nuw %struct.MXFIndexTableSegment, ptr %36, i32 0, i32 10
  %38 = load i32, ptr %37, align 8, !tbaa !338
  %39 = sext i32 %38 to i64
  %40 = call ptr @av_malloc_array(i64 noundef %39, i64 noundef 1)
  %41 = load ptr, ptr %5, align 8, !tbaa !248
  %42 = getelementptr inbounds nuw %struct.MXFIndexTableSegment, ptr %41, i32 0, i32 7
  store ptr %40, ptr %42, align 8, !tbaa !337
  %43 = icmp ne ptr %40, null
  br i1 %43, label %44, label %62

44:                                               ; preds = %35
  %45 = load ptr, ptr %5, align 8, !tbaa !248
  %46 = getelementptr inbounds nuw %struct.MXFIndexTableSegment, ptr %45, i32 0, i32 10
  %47 = load i32, ptr %46, align 8, !tbaa !338
  %48 = sext i32 %47 to i64
  %49 = call ptr @av_malloc_array(i64 noundef %48, i64 noundef 4)
  %50 = load ptr, ptr %5, align 8, !tbaa !248
  %51 = getelementptr inbounds nuw %struct.MXFIndexTableSegment, ptr %50, i32 0, i32 8
  store ptr %49, ptr %51, align 8, !tbaa !339
  %52 = icmp ne ptr %49, null
  br i1 %52, label %53, label %62

53:                                               ; preds = %44
  %54 = load ptr, ptr %5, align 8, !tbaa !248
  %55 = getelementptr inbounds nuw %struct.MXFIndexTableSegment, ptr %54, i32 0, i32 10
  %56 = load i32, ptr %55, align 8, !tbaa !338
  %57 = sext i32 %56 to i64
  %58 = call ptr @av_malloc_array(i64 noundef %57, i64 noundef 8)
  %59 = load ptr, ptr %5, align 8, !tbaa !248
  %60 = getelementptr inbounds nuw %struct.MXFIndexTableSegment, ptr %59, i32 0, i32 9
  store ptr %58, ptr %60, align 8, !tbaa !340
  %61 = icmp ne ptr %58, null
  br i1 %61, label %67, label %62

62:                                               ; preds = %53, %44, %35
  %63 = load ptr, ptr %5, align 8, !tbaa !248
  %64 = getelementptr inbounds nuw %struct.MXFIndexTableSegment, ptr %63, i32 0, i32 7
  call void @av_freep(ptr noundef %64)
  %65 = load ptr, ptr %5, align 8, !tbaa !248
  %66 = getelementptr inbounds nuw %struct.MXFIndexTableSegment, ptr %65, i32 0, i32 8
  call void @av_freep(ptr noundef %66)
  store i32 -12, ptr %3, align 4
  store i32 1, ptr %9, align 4
  br label %116

67:                                               ; preds = %53
  store i32 0, ptr %6, align 4, !tbaa !47
  br label %68

68:                                               ; preds = %112, %67
  %69 = load i32, ptr %6, align 4, !tbaa !47
  %70 = load ptr, ptr %5, align 8, !tbaa !248
  %71 = getelementptr inbounds nuw %struct.MXFIndexTableSegment, ptr %70, i32 0, i32 10
  %72 = load i32, ptr %71, align 8, !tbaa !338
  %73 = icmp slt i32 %69, %72
  br i1 %73, label %74, label %115

74:                                               ; preds = %68
  %75 = load ptr, ptr %4, align 8, !tbaa !138
  %76 = call i32 @avio_feof(ptr noundef %75)
  %77 = icmp ne i32 %76, 0
  br i1 %77, label %78, label %79

78:                                               ; preds = %74
  store i32 -1094995529, ptr %3, align 4
  store i32 1, ptr %9, align 4
  br label %116

79:                                               ; preds = %74
  %80 = load ptr, ptr %4, align 8, !tbaa !138
  %81 = call i32 @avio_r8(ptr noundef %80)
  %82 = trunc i32 %81 to i8
  %83 = load ptr, ptr %5, align 8, !tbaa !248
  %84 = getelementptr inbounds nuw %struct.MXFIndexTableSegment, ptr %83, i32 0, i32 7
  %85 = load ptr, ptr %84, align 8, !tbaa !337
  %86 = load i32, ptr %6, align 4, !tbaa !47
  %87 = sext i32 %86 to i64
  %88 = getelementptr inbounds i8, ptr %85, i64 %87
  store i8 %82, ptr %88, align 1, !tbaa !15
  %89 = load ptr, ptr %4, align 8, !tbaa !138
  %90 = call i32 @avio_r8(ptr noundef %89)
  %91 = load ptr, ptr %4, align 8, !tbaa !138
  %92 = call i32 @avio_r8(ptr noundef %91)
  %93 = load ptr, ptr %5, align 8, !tbaa !248
  %94 = getelementptr inbounds nuw %struct.MXFIndexTableSegment, ptr %93, i32 0, i32 8
  %95 = load ptr, ptr %94, align 8, !tbaa !339
  %96 = load i32, ptr %6, align 4, !tbaa !47
  %97 = sext i32 %96 to i64
  %98 = getelementptr inbounds i32, ptr %95, i64 %97
  store i32 %92, ptr %98, align 4, !tbaa !47
  %99 = load ptr, ptr %4, align 8, !tbaa !138
  %100 = call i64 @avio_rb64(ptr noundef %99)
  %101 = load ptr, ptr %5, align 8, !tbaa !248
  %102 = getelementptr inbounds nuw %struct.MXFIndexTableSegment, ptr %101, i32 0, i32 9
  %103 = load ptr, ptr %102, align 8, !tbaa !340
  %104 = load i32, ptr %6, align 4, !tbaa !47
  %105 = sext i32 %104 to i64
  %106 = getelementptr inbounds i64, ptr %103, i64 %105
  store i64 %100, ptr %106, align 8, !tbaa !37
  %107 = load ptr, ptr %4, align 8, !tbaa !138
  %108 = load i32, ptr %7, align 4, !tbaa !47
  %109 = sub nsw i32 %108, 11
  %110 = sext i32 %109 to i64
  %111 = call i64 @avio_skip(ptr noundef %107, i64 noundef %110)
  br label %112

112:                                              ; preds = %79
  %113 = load i32, ptr %6, align 4, !tbaa !47
  %114 = add nsw i32 %113, 1
  store i32 %114, ptr %6, align 4, !tbaa !47
  br label %68, !llvm.loop !341

115:                                              ; preds = %68
  store i32 0, ptr %3, align 4
  store i32 1, ptr %9, align 4
  br label %116

116:                                              ; preds = %115, %78, %62, %34, %20, %14
  call void @llvm.lifetime.end.p0(i64 4, ptr %8) #13
  call void @llvm.lifetime.end.p0(i64 4, ptr %7) #13
  call void @llvm.lifetime.end.p0(i64 4, ptr %6) #13
  %117 = load i32, ptr %3, align 4
  ret i32 %117
}

; Function Attrs: nounwind uwtable
define internal i32 @mxf_read_index_table_segment(ptr noundef %0, ptr noundef %1, i32 noundef %2, i32 noundef %3, ptr noundef %4, i64 noundef %5) #0 {
  %7 = alloca i32, align 4
  %8 = alloca ptr, align 8
  %9 = alloca ptr, align 8
  %10 = alloca i32, align 4
  %11 = alloca i32, align 4
  %12 = alloca ptr, align 8
  %13 = alloca i64, align 8
  %14 = alloca ptr, align 8
  %15 = alloca i32, align 4
  store ptr %0, ptr %8, align 8, !tbaa !90
  store ptr %1, ptr %9, align 8, !tbaa !138
  store i32 %2, ptr %10, align 4, !tbaa !47
  store i32 %3, ptr %11, align 4, !tbaa !47
  store ptr %4, ptr %12, align 8, !tbaa !13
  store i64 %5, ptr %13, align 8, !tbaa !37
  call void @llvm.lifetime.start.p0(i64 8, ptr %14) #13
  %16 = load ptr, ptr %8, align 8, !tbaa !90
  store ptr %16, ptr %14, align 8, !tbaa !248
  %17 = load i32, ptr %10, align 4, !tbaa !47
  switch i32 %17, label %94 [
    i32 16133, label %18
    i32 16134, label %26
    i32 16135, label %34
    i32 16138, label %42
    i32 16139, label %46
    i32 16140, label %78
    i32 16141, label %86
  ]

18:                                               ; preds = %6
  %19 = load ptr, ptr %9, align 8, !tbaa !138
  %20 = call i32 @avio_rb32(ptr noundef %19)
  %21 = load ptr, ptr %14, align 8, !tbaa !248
  %22 = getelementptr inbounds nuw %struct.MXFIndexTableSegment, ptr %21, i32 0, i32 1
  store i32 %20, ptr %22, align 8, !tbaa !259
  %23 = load ptr, ptr %14, align 8, !tbaa !248
  %24 = getelementptr inbounds nuw %struct.MXFIndexTableSegment, ptr %23, i32 0, i32 1
  %25 = load i32, ptr %24, align 8, !tbaa !259
  call void (ptr, i32, ptr, ...) @av_log(ptr noundef null, i32 noundef 56, ptr noundef @.str.63, i32 noundef %25)
  br label %94

26:                                               ; preds = %6
  %27 = load ptr, ptr %9, align 8, !tbaa !138
  %28 = call i32 @avio_rb32(ptr noundef %27)
  %29 = load ptr, ptr %14, align 8, !tbaa !248
  %30 = getelementptr inbounds nuw %struct.MXFIndexTableSegment, ptr %29, i32 0, i32 2
  store i32 %28, ptr %30, align 4, !tbaa !262
  %31 = load ptr, ptr %14, align 8, !tbaa !248
  %32 = getelementptr inbounds nuw %struct.MXFIndexTableSegment, ptr %31, i32 0, i32 2
  %33 = load i32, ptr %32, align 4, !tbaa !262
  call void (ptr, i32, ptr, ...) @av_log(ptr noundef null, i32 noundef 56, ptr noundef @.str.64, i32 noundef %33)
  br label %94

34:                                               ; preds = %6
  %35 = load ptr, ptr %9, align 8, !tbaa !138
  %36 = call i32 @avio_rb32(ptr noundef %35)
  %37 = load ptr, ptr %14, align 8, !tbaa !248
  %38 = getelementptr inbounds nuw %struct.MXFIndexTableSegment, ptr %37, i32 0, i32 3
  store i32 %36, ptr %38, align 8, !tbaa !250
  %39 = load ptr, ptr %14, align 8, !tbaa !248
  %40 = getelementptr inbounds nuw %struct.MXFIndexTableSegment, ptr %39, i32 0, i32 3
  %41 = load i32, ptr %40, align 8, !tbaa !250
  call void (ptr, i32, ptr, ...) @av_log(ptr noundef null, i32 noundef 56, ptr noundef @.str.65, i32 noundef %41)
  br label %94

42:                                               ; preds = %6
  call void (ptr, i32, ptr, ...) @av_log(ptr noundef null, i32 noundef 56, ptr noundef @.str.66)
  %43 = load ptr, ptr %9, align 8, !tbaa !138
  %44 = load ptr, ptr %14, align 8, !tbaa !248
  %45 = call i32 @mxf_read_index_entry_array(ptr noundef %43, ptr noundef %44)
  store i32 %45, ptr %7, align 4
  store i32 1, ptr %15, align 4
  br label %95

46:                                               ; preds = %6
  %47 = load ptr, ptr %9, align 8, !tbaa !138
  %48 = call i32 @avio_rb32(ptr noundef %47)
  %49 = load ptr, ptr %14, align 8, !tbaa !248
  %50 = getelementptr inbounds nuw %struct.MXFIndexTableSegment, ptr %49, i32 0, i32 4
  %51 = getelementptr inbounds nuw %struct.AVRational, ptr %50, i32 0, i32 0
  store i32 %48, ptr %51, align 4, !tbaa !270
  %52 = load ptr, ptr %9, align 8, !tbaa !138
  %53 = call i32 @avio_rb32(ptr noundef %52)
  %54 = load ptr, ptr %14, align 8, !tbaa !248
  %55 = getelementptr inbounds nuw %struct.MXFIndexTableSegment, ptr %54, i32 0, i32 4
  %56 = getelementptr inbounds nuw %struct.AVRational, ptr %55, i32 0, i32 1
  store i32 %53, ptr %56, align 4, !tbaa !271
  %57 = load ptr, ptr %14, align 8, !tbaa !248
  %58 = getelementptr inbounds nuw %struct.MXFIndexTableSegment, ptr %57, i32 0, i32 4
  %59 = getelementptr inbounds nuw %struct.AVRational, ptr %58, i32 0, i32 0
  %60 = load i32, ptr %59, align 4, !tbaa !270
  %61 = icmp sle i32 %60, 0
  br i1 %61, label %68, label %62

62:                                               ; preds = %46
  %63 = load ptr, ptr %14, align 8, !tbaa !248
  %64 = getelementptr inbounds nuw %struct.MXFIndexTableSegment, ptr %63, i32 0, i32 4
  %65 = getelementptr inbounds nuw %struct.AVRational, ptr %64, i32 0, i32 1
  %66 = load i32, ptr %65, align 4, !tbaa !271
  %67 = icmp sle i32 %66, 0
  br i1 %67, label %68, label %69

68:                                               ; preds = %62, %46
  store i32 -1094995529, ptr %7, align 4
  store i32 1, ptr %15, align 4
  br label %95

69:                                               ; preds = %62
  %70 = load ptr, ptr %14, align 8, !tbaa !248
  %71 = getelementptr inbounds nuw %struct.MXFIndexTableSegment, ptr %70, i32 0, i32 4
  %72 = getelementptr inbounds nuw %struct.AVRational, ptr %71, i32 0, i32 0
  %73 = load i32, ptr %72, align 4, !tbaa !270
  %74 = load ptr, ptr %14, align 8, !tbaa !248
  %75 = getelementptr inbounds nuw %struct.MXFIndexTableSegment, ptr %74, i32 0, i32 4
  %76 = getelementptr inbounds nuw %struct.AVRational, ptr %75, i32 0, i32 1
  %77 = load i32, ptr %76, align 4, !tbaa !271
  call void (ptr, i32, ptr, ...) @av_log(ptr noundef null, i32 noundef 56, ptr noundef @.str.67, i32 noundef %73, i32 noundef %77)
  br label %94

78:                                               ; preds = %6
  %79 = load ptr, ptr %9, align 8, !tbaa !138
  %80 = call i64 @avio_rb64(ptr noundef %79)
  %81 = load ptr, ptr %14, align 8, !tbaa !248
  %82 = getelementptr inbounds nuw %struct.MXFIndexTableSegment, ptr %81, i32 0, i32 5
  store i64 %80, ptr %82, align 8, !tbaa !260
  %83 = load ptr, ptr %14, align 8, !tbaa !248
  %84 = getelementptr inbounds nuw %struct.MXFIndexTableSegment, ptr %83, i32 0, i32 5
  %85 = load i64, ptr %84, align 8, !tbaa !260
  call void (ptr, i32, ptr, ...) @av_log(ptr noundef null, i32 noundef 56, ptr noundef @.str.68, i64 noundef %85)
  br label %94

86:                                               ; preds = %6
  %87 = load ptr, ptr %9, align 8, !tbaa !138
  %88 = call i64 @avio_rb64(ptr noundef %87)
  %89 = load ptr, ptr %14, align 8, !tbaa !248
  %90 = getelementptr inbounds nuw %struct.MXFIndexTableSegment, ptr %89, i32 0, i32 6
  store i64 %88, ptr %90, align 8, !tbaa !261
  %91 = load ptr, ptr %14, align 8, !tbaa !248
  %92 = getelementptr inbounds nuw %struct.MXFIndexTableSegment, ptr %91, i32 0, i32 6
  %93 = load i64, ptr %92, align 8, !tbaa !261
  call void (ptr, i32, ptr, ...) @av_log(ptr noundef null, i32 noundef 56, ptr noundef @.str.69, i64 noundef %93)
  br label %94

94:                                               ; preds = %6, %86, %78, %69, %34, %26, %18
  store i32 0, ptr %7, align 4
  store i32 1, ptr %15, align 4
  br label %95

95:                                               ; preds = %94, %68, %42
  call void @llvm.lifetime.end.p0(i64 8, ptr %14) #13
  %96 = load i32, ptr %7, align 4
  ret i32 %96
}