; Function Attrs: nounwind uwtable
define internal range(i32 -1094995529, 1) i32 @mxf_read_index_table_segment(ptr noundef %0, ptr noundef %1, i32 noundef %2, i32 %3, ptr readnone captures(none) %4, i64 %5) #1 {
  switch i32 %2, label %mxf_read_index_entry_array.exit [
    i32 16133, label %7
    i32 16134, label %10
    i32 16135, label %13
    i32 16138, label %16
    i32 16139, label %65
    i32 16140, label %74
    i32 16141, label %77
  ]

7:                                                ; preds = %6
  %8 = tail call i32 @avio_rb32(ptr noundef %1) #15
  %9 = getelementptr inbounds nuw i8, ptr %0, i64 24
  store i32 %8, ptr %9, align 8, !tbaa !217
  tail call void (ptr, i32, ptr, ...) @av_log(ptr noundef null, i32 noundef 56, ptr noundef nonnull @.str.63, i32 noundef %8) #15
  br label %mxf_read_index_entry_array.exit

10:                                               ; preds = %6
  %11 = tail call i32 @avio_rb32(ptr noundef %1) #15
  %12 = getelementptr inbounds nuw i8, ptr %0, i64 28
  store i32 %11, ptr %12, align 4, !tbaa !224
  tail call void (ptr, i32, ptr, ...) @av_log(ptr noundef null, i32 noundef 56, ptr noundef nonnull @.str.64, i32 noundef %11) #15
  br label %mxf_read_index_entry_array.exit

13:                                               ; preds = %6
  %14 = tail call i32 @avio_rb32(ptr noundef %1) #15
  %15 = getelementptr inbounds nuw i8, ptr %0, i64 32
  store i32 %14, ptr %15, align 8, !tbaa !228
  tail call void (ptr, i32, ptr, ...) @av_log(ptr noundef null, i32 noundef 56, ptr noundef nonnull @.str.65, i32 noundef %14) #15
  br label %mxf_read_index_entry_array.exit

16:                                               ; preds = %6
  tail call void (ptr, i32, ptr, ...) @av_log(ptr noundef null, i32 noundef 56, ptr noundef nonnull @.str.66) #15
  %17 = getelementptr inbounds nuw i8, ptr %0, i64 64
  %18 = load ptr, ptr %17, align 8, !tbaa !247
  %.not.i = icmp eq ptr %18, null
  br i1 %.not.i, label %19, label %mxf_read_index_entry_array.exit

19:                                               ; preds = %16
  %20 = tail call i32 @avio_rb32(ptr noundef %1) #15
  %21 = icmp slt i32 %20, 0
  br i1 %21, label %mxf_read_index_entry_array.exit, label %22

22:                                               ; preds = %19
  %23 = getelementptr inbounds nuw i8, ptr %0, i64 88
  store i32 %20, ptr %23, align 8, !tbaa !221
  %24 = tail call i32 @avio_rb32(ptr noundef %1) #15
  %25 = load i32, ptr %23, align 8, !tbaa !221
  %26 = icmp ne i32 %25, 0
  %27 = icmp slt i32 %24, 11
  %or.cond.i = select i1 %26, i1 %27, i1 false
  br i1 %or.cond.i, label %mxf_read_index_entry_array.exit, label %28

28:                                               ; preds = %22
  %29 = sext i32 %25 to i64
  %30 = tail call ptr @av_malloc_array(i64 noundef %29, i64 noundef 1) #15
  store ptr %30, ptr %17, align 8, !tbaa !247
  %.not35.i = icmp eq ptr %30, null
  br i1 %.not35.i, label %45, label %31

31:                                               ; preds = %28
  %32 = load i32, ptr %23, align 8, !tbaa !221
  %33 = sext i32 %32 to i64
  %34 = tail call ptr @av_malloc_array(i64 noundef %33, i64 noundef 4) #15
  %35 = getelementptr inbounds nuw i8, ptr %0, i64 72
  store ptr %34, ptr %35, align 8, !tbaa !248
  %.not36.i = icmp eq ptr %34, null
  br i1 %.not36.i, label %45, label %36

36:                                               ; preds = %31
  %37 = load i32, ptr %23, align 8, !tbaa !221
  %38 = sext i32 %37 to i64
  %39 = tail call ptr @av_malloc_array(i64 noundef %38, i64 noundef 8) #15
  %40 = getelementptr inbounds nuw i8, ptr %0, i64 80
  store ptr %39, ptr %40, align 8, !tbaa !350
  %.not37.i = icmp eq ptr %39, null
  br i1 %.not37.i, label %45, label %.preheader.i

.preheader.i:                                     ; preds = %36
  %41 = load i32, ptr %23, align 8, !tbaa !221
  %42 = icmp sgt i32 %41, 0
  br i1 %42, label %.lr.ph.i, label %mxf_read_index_entry_array.exit

.lr.ph.i:                                         ; preds = %.preheader.i
  %43 = add nsw i32 %24, -11
  %44 = sext i32 %43 to i64
  br label %47

45:                                               ; preds = %36, %31, %28
  tail call void @av_freep(ptr noundef nonnull %17) #15
  %46 = getelementptr inbounds nuw i8, ptr %0, i64 72
  tail call void @av_freep(ptr noundef nonnull %46) #15
  br label %mxf_read_index_entry_array.exit

47:                                               ; preds = %49, %.lr.ph.i
  %indvars.iv.i = phi i64 [ 0, %.lr.ph.i ], [ %indvars.iv.next.i, %49 ]
  %48 = tail call i32 @avio_feof(ptr noundef %1) #15
  %.not38.i = icmp eq i32 %48, 0
  br i1 %.not38.i, label %49, label %mxf_read_index_entry_array.exit

49:                                               ; preds = %47
  %50 = tail call i32 @avio_r8(ptr noundef %1) #15
  %51 = trunc i32 %50 to i8
  %52 = load ptr, ptr %17, align 8, !tbaa !247
  %53 = getelementptr inbounds nuw i8, ptr %52, i64 %indvars.iv.i
  store i8 %51, ptr %53, align 1, !tbaa !12
  %54 = tail call i32 @avio_r8(ptr noundef %1) #15
  %55 = tail call i32 @avio_r8(ptr noundef %1) #15
  %56 = load ptr, ptr %35, align 8, !tbaa !248
  %57 = getelementptr inbounds nuw i32, ptr %56, i64 %indvars.iv.i
  store i32 %55, ptr %57, align 4, !tbaa !142
  %58 = tail call i64 @avio_rb64(ptr noundef %1) #15
  %59 = load ptr, ptr %40, align 8, !tbaa !350
  %60 = getelementptr inbounds nuw i64, ptr %59, i64 %indvars.iv.i
  store i64 %58, ptr %60, align 8, !tbaa !53
  %61 = tail call i64 @avio_skip(ptr noundef %1, i64 noundef %44) #15
  %indvars.iv.next.i = add nuw nsw i64 %indvars.iv.i, 1
  %62 = load i32, ptr %23, align 8, !tbaa !221
  %63 = sext i32 %62 to i64
  %64 = icmp slt i64 %indvars.iv.next.i, %63
  br i1 %64, label %47, label %mxf_read_index_entry_array.exit, !llvm.loop !351

65:                                               ; preds = %6
  %66 = tail call i32 @avio_rb32(ptr noundef %1) #15
  %67 = getelementptr inbounds nuw i8, ptr %0, i64 36
  store i32 %66, ptr %67, align 4, !tbaa !256
  %68 = tail call i32 @avio_rb32(ptr noundef %1) #15
  %69 = getelementptr inbounds nuw i8, ptr %0, i64 40
  store i32 %68, ptr %69, align 4, !tbaa !257
  %70 = load i32, ptr %67, align 4, !tbaa !256
  %71 = icmp slt i32 %70, 1
  %72 = icmp slt i32 %68, 1
  %or.cond = select i1 %71, i1 true, i1 %72
  br i1 %or.cond, label %mxf_read_index_entry_array.exit, label %73

73:                                               ; preds = %65
  tail call void (ptr, i32, ptr, ...) @av_log(ptr noundef null, i32 noundef 56, ptr noundef nonnull @.str.67, i32 noundef %70, i32 noundef %68) #15
  br label %mxf_read_index_entry_array.exit

74:                                               ; preds = %6
  %75 = tail call i64 @avio_rb64(ptr noundef %1) #15
  %76 = getelementptr inbounds nuw i8, ptr %0, i64 48
  store i64 %75, ptr %76, align 8, !tbaa !225
  tail call void (ptr, i32, ptr, ...) @av_log(ptr noundef null, i32 noundef 56, ptr noundef nonnull @.str.68, i64 noundef %75) #15
  br label %mxf_read_index_entry_array.exit

77:                                               ; preds = %6
  %78 = tail call i64 @avio_rb64(ptr noundef %1) #15
  %79 = getelementptr inbounds nuw i8, ptr %0, i64 56
  store i64 %78, ptr %79, align 8, !tbaa !229
  tail call void (ptr, i32, ptr, ...) @av_log(ptr noundef null, i32 noundef 56, ptr noundef nonnull @.str.69, i64 noundef %78) #15
  br label %mxf_read_index_entry_array.exit

mxf_read_index_entry_array.exit:                  ; preds = %49, %47, %45, %.preheader.i, %22, %19, %16, %6, %7, %10, %13, %73, %74, %77, %65
  %.0 = phi i32 [ -1094995529, %65 ], [ 0, %77 ], [ 0, %74 ], [ 0, %73 ], [ 0, %13 ], [ 0, %10 ], [ 0, %7 ], [ 0, %6 ], [ -12, %45 ], [ -1094995529, %16 ], [ -1094995529, %19 ], [ -1094995529, %22 ], [ 0, %.preheader.i ], [ 0, %49 ], [ -1094995529, %47 ]
  ret i32 %.0
}